ARM GAS  C:\DOCUME~1\Giovanni\IMPOST~1\Temp\ccZ4NPZV.s 			page 1


   1              		.syntax unified
   2              		.cpu cortex-m3
   3              		.fpu softvfp
   4              		.eabi_attribute 20, 1
   5              		.eabi_attribute 21, 1
   6              		.eabi_attribute 23, 3
   7              		.eabi_attribute 24, 1
   8              		.eabi_attribute 25, 1
   9              		.eabi_attribute 26, 1
  10              		.eabi_attribute 30, 2
  11              		.eabi_attribute 18, 4
  12              		.thumb
  13              		.file	"main.c"
  14              		.text
  15              	.Ltext0:
  16              		.cfi_sections	.debug_frame
  17              		.section	.text.println,"ax",%progbits
  18              		.align	2
  19              		.p2align 4,,15
  20              		.thumb
  21              		.thumb_func
  22              		.type	println, %function
  23              	println:
  24              	.LFB66:
  25              		.file 1 "main.c"
  26              		.loc 1 177 0
  27              		.cfi_startproc
  28              		@ args = 0, pretend = 0, frame = 0
  29              		@ frame_needed = 0, uses_anonymous_args = 0
  30              	.LVL0:
  31 0000 38B5     		push	{r3, r4, r5, lr}
  32              	.LCFI0:
  33              		.cfi_def_cfa_offset 16
  34              		.cfi_offset 14, -4
  35              		.cfi_offset 5, -8
  36              		.cfi_offset 4, -12
  37              		.cfi_offset 3, -16
  38              		.loc 1 179 0
  39 0002 0178     		ldrb	r1, [r0, #0]	@ zero_extendqisi2
  40 0004 0A4D     		ldr	r5, .L8
  41 0006 0446     		mov	r4, r0
  42 0008 49B1     		cbz	r1, .L2
  43              	.LVL1:
  44              	.L3:
  45              		.loc 1 180 0
  46 000a 2B68     		ldr	r3, [r5, #0]
  47 000c 0848     		ldr	r0, .L8
  48 000e 1B69     		ldr	r3, [r3, #16]
  49 0010 4FF0FF32 		mov	r2, #-1
  50 0014 9847     		blx	r3
  51              		.loc 1 179 0
  52 0016 14F8011F 		ldrb	r1, [r4, #1]!	@ zero_extendqisi2
  53 001a 0029     		cmp	r1, #0
  54 001c F5D1     		bne	.L3
  55              	.L2:
  56              		.loc 1 182 0
  57 001e 2B68     		ldr	r3, [r5, #0]
ARM GAS  C:\DOCUME~1\Giovanni\IMPOST~1\Temp\ccZ4NPZV.s 			page 2


  58 0020 0449     		ldr	r1, .L8+4
  59 0022 9C69     		ldr	r4, [r3, #24]
  60 0024 0222     		movs	r2, #2
  61 0026 4FF0FF33 		mov	r3, #-1
  62 002a 0148     		ldr	r0, .L8
  63 002c A047     		blx	r4
  64              		.loc 1 183 0
  65 002e 38BD     		pop	{r3, r4, r5, pc}
  66              	.L9:
  67              		.align	2
  68              	.L8:
  69 0030 00000000 		.word	SD1
  70 0034 00000000 		.word	.LC0
  71              		.cfi_endproc
  72              	.LFE66:
  73              		.size	println, .-println
  74 0038 AFF30080 		.section	.text.gpt3cb,"ax",%progbits
  74      AFF30080 
  75              		.align	2
  76              		.p2align 4,,15
  77              		.thumb
  78              		.thumb_func
  79              		.type	gpt3cb, %function
  80              	gpt3cb:
  81              	.LFB64:
  82              		.loc 1 138 0
  83              		.cfi_startproc
  84              		@ args = 0, pretend = 0, frame = 0
  85              		@ frame_needed = 0, uses_anonymous_args = 0
  86              	.LVL2:
  87 0000 08B5     		push	{r3, lr}
  88              	.LCFI1:
  89              		.cfi_def_cfa_offset 8
  90              		.cfi_offset 14, -4
  91              		.cfi_offset 3, -8
  92              	.LBB34:
  93              		.loc 1 142 0
  94 0002 2023     		movs	r3, #32
  95              	.LVL3:
  96              	@ 142 "main.c" 1
  97 0004 83F31188 		msr     BASEPRI, r3
  98              	@ 0 "" 2
  99              	.LVL4:
 100              		.thumb
 101              	.LBE34:
 102              		.loc 1 143 0
 103 0008 0548     		ldr	r0, .L12
 104              	.LVL5:
 105 000a 0021     		movs	r1, #0
 106 000c FFF7FEFF 		bl	chMBPostI
 107              	.LVL6:
 108              		.loc 1 144 0
 109 0010 10B1     		cbz	r0, .L11
 110              		.loc 1 145 0
 111 0012 044B     		ldr	r3, .L12+4
 112 0014 0122     		movs	r2, #1
 113 0016 1A60     		str	r2, [r3, #0]
ARM GAS  C:\DOCUME~1\Giovanni\IMPOST~1\Temp\ccZ4NPZV.s 			page 3


 114              	.L11:
 115              	.LBB35:
 116              		.loc 1 146 0
 117 0018 0023     		movs	r3, #0
 118              	.LVL7:
 119              	@ 146 "main.c" 1
 120 001a 83F31188 		msr     BASEPRI, r3
 121              	@ 0 "" 2
 122              	.LVL8:
 123              		.thumb
 124              	.LBE35:
 125              		.loc 1 147 0
 126 001e 08BD     		pop	{r3, pc}
 127              	.L13:
 128              		.align	2
 129              	.L12:
 130 0020 78000000 		.word	.LANCHOR0+120
 131 0024 00000000 		.word	.LANCHOR1
 132              		.cfi_endproc
 133              	.LFE64:
 134              		.size	gpt3cb, .-gpt3cb
 135 0028 AFF30080 		.section	.text.gpt2cb,"ax",%progbits
 135      AFF30080 
 136              		.align	2
 137              		.p2align 4,,15
 138              		.thumb
 139              		.thumb_func
 140              		.type	gpt2cb, %function
 141              	gpt2cb:
 142              	.LFB63:
 143              		.loc 1 124 0
 144              		.cfi_startproc
 145              		@ args = 0, pretend = 0, frame = 0
 146              		@ frame_needed = 0, uses_anonymous_args = 0
 147              	.LVL9:
 148 0000 08B5     		push	{r3, lr}
 149              	.LCFI2:
 150              		.cfi_def_cfa_offset 8
 151              		.cfi_offset 14, -4
 152              		.cfi_offset 3, -8
 153              	.LBB36:
 154              		.loc 1 128 0
 155 0002 2023     		movs	r3, #32
 156              	.LVL10:
 157              	@ 128 "main.c" 1
 158 0004 83F31188 		msr     BASEPRI, r3
 159              	@ 0 "" 2
 160              	.LVL11:
 161              		.thumb
 162              	.LBE36:
 163              		.loc 1 129 0
 164 0008 0548     		ldr	r0, .L16
 165              	.LVL12:
 166 000a 0121     		movs	r1, #1
 167 000c FFF7FEFF 		bl	chMBPostI
 168              	.LVL13:
 169              		.loc 1 130 0
ARM GAS  C:\DOCUME~1\Giovanni\IMPOST~1\Temp\ccZ4NPZV.s 			page 4


 170 0010 10B1     		cbz	r0, .L15
 171              		.loc 1 131 0
 172 0012 044B     		ldr	r3, .L16+4
 173 0014 0122     		movs	r2, #1
 174 0016 1A60     		str	r2, [r3, #0]
 175              	.L15:
 176              	.LBB37:
 177              		.loc 1 132 0
 178 0018 0023     		movs	r3, #0
 179              	.LVL14:
 180              	@ 132 "main.c" 1
 181 001a 83F31188 		msr     BASEPRI, r3
 182              	@ 0 "" 2
 183              	.LVL15:
 184              		.thumb
 185              	.LBE37:
 186              		.loc 1 133 0
 187 001e 08BD     		pop	{r3, pc}
 188              	.L17:
 189              		.align	2
 190              	.L16:
 191 0020 00000000 		.word	.LANCHOR0
 192 0024 00000000 		.word	.LANCHOR1
 193              		.cfi_endproc
 194              	.LFE63:
 195              		.size	gpt2cb, .-gpt2cb
 196 0028 AFF30080 		.section	.text.WorkerThread,"ax",%progbits
 196      AFF30080 
 197              		.align	2
 198              		.p2align 4,,15
 199              		.thumb
 200              		.thumb_func
 201              		.type	WorkerThread, %function
 202              	WorkerThread:
 203              	.LFB62:
 204              		.loc 1 65 0
 205              		.cfi_startproc
 206              		@ args = 0, pretend = 0, frame = 8
 207              		@ frame_needed = 0, uses_anonymous_args = 0
 208              	.LVL16:
 209 0000 2DE9F04F 		push	{r4, r5, r6, r7, r8, r9, sl, fp, lr}
 210              	.LCFI3:
 211              		.cfi_def_cfa_offset 36
 212              		.cfi_offset 14, -4
 213              		.cfi_offset 11, -8
 214              		.cfi_offset 10, -12
 215              		.cfi_offset 9, -16
 216              		.cfi_offset 8, -20
 217              		.cfi_offset 7, -24
 218              		.cfi_offset 6, -28
 219              		.cfi_offset 5, -32
 220              		.cfi_offset 4, -36
 221              		.loc 1 73 0
 222 0004 244B     		ldr	r3, .L31
 223 0006 DFF8A0B0 		ldr	fp, .L31+16
 224 000a DB69     		ldr	r3, [r3, #28]
 225 000c 234E     		ldr	r6, .L31+4
ARM GAS  C:\DOCUME~1\Giovanni\IMPOST~1\Temp\ccZ4NPZV.s 			page 5


 226 000e 244A     		ldr	r2, .L31+8
 227              		.loc 1 78 0
 228 0010 00EB8007 		add	r7, r0, r0, lsl #2
 229 0014 234C     		ldr	r4, .L31+12
 230              		.loc 1 65 0
 231 0016 83B0     		sub	sp, sp, #12
 232              	.LCFI4:
 233              		.cfi_def_cfa_offset 48
 234              		.loc 1 73 0
 235 0018 9A61     		str	r2, [r3, #24]
 236 001a 0509     		lsrs	r5, r0, #4
 237 001c 00F1FF39 		add	r9, r0, #-1
 238 0020 00F10108 		add	r8, r0, #1
 239              		.loc 1 78 0
 240 0024 0BEBC707 		add	r7, fp, r7, lsl #3
 241              		.loc 1 113 0
 242 0028 B246     		mov	sl, r6
 243              	.LVL17:
 244              	.L29:
 245              		.loc 1 78 0
 246 002a 3846     		mov	r0, r7
 247              	.LVL18:
 248 002c 01A9     		add	r1, sp, #4
 249 002e 4FF0FF32 		mov	r2, #-1
 250 0032 FFF7FEFF 		bl	chMBFetch
 251              	.LVL19:
 252              		.loc 1 93 0
 253 0036 2DB1     		cbz	r5, .L20
 254 0038 2B46     		mov	r3, r5
 255              	.LVL20:
 256              	.L21:
 257              		.loc 1 94 0
 258 003a 2268     		ldr	r2, [r4, #0]
 259 003c 0132     		adds	r2, r2, #1
 260              		.loc 1 93 0
 261 003e 013B     		subs	r3, r3, #1
 262              		.loc 1 94 0
 263 0040 2260     		str	r2, [r4, #0]
 264              		.loc 1 93 0
 265 0042 FAD1     		bne	.L21
 266              	.L20:
 267              		.loc 1 99 0
 268 0044 0199     		ldr	r1, [sp, #4]
 269              		.loc 1 100 0
 270 0046 0029     		cmp	r1, #0
 271 0048 14BF     		ite	ne
 272 004a 4346     		movne	r3, r8
 273 004c 4B46     		moveq	r3, r9
 274              	.LVL21:
 275              		.loc 1 104 0
 276 004e 032B     		cmp	r3, #3
 277 0050 11D9     		bls	.L30
 278              		.loc 1 113 0
 279 0052 3368     		ldr	r3, [r6, #0]
 280              	.LVL22:
 281 0054 0133     		adds	r3, r3, #1
 282 0056 B3F5FA7F 		cmp	r3, #500
ARM GAS  C:\DOCUME~1\Giovanni\IMPOST~1\Temp\ccZ4NPZV.s 			page 6


 283 005a 3360     		str	r3, [r6, #0]
 284 005c E5D3     		bcc	.L29
 285              		.loc 1 114 0
 286 005e 0022     		movs	r2, #0
 287              		.loc 1 115 0
 288 0060 4FF48063 		mov	r3, #1024
 289              		.loc 1 114 0
 290 0064 CAF80020 		str	r2, [sl, #0]
 291              		.loc 1 115 0
 292 0068 C4F20203 		movt	r3, 16386
 293 006c 5A69     		ldr	r2, [r3, #20]
 294 006e 82F04002 		eor	r2, r2, #64
 295 0072 5A61     		str	r2, [r3, #20]
 296 0074 D9E7     		b	.L29
 297              	.LVL23:
 298              	.L30:
 299              		.loc 1 107 0
 300 0076 03EB8303 		add	r3, r3, r3, lsl #2
 301              	.LVL24:
 302 007a 0BEBC300 		add	r0, fp, r3, lsl #3
 303 007e 0022     		movs	r2, #0
 304 0080 FFF7FEFF 		bl	chMBPost
 305 0084 0190     		str	r0, [sp, #4]
 306              		.loc 1 108 0
 307 0086 0028     		cmp	r0, #0
 308 0088 CFD0     		beq	.L29
 309              		.loc 1 109 0
 310 008a 40F20002 		movw	r2, #:lower16:.LANCHOR1
 311 008e 0123     		movs	r3, #1
 312 0090 C0F20002 		movt	r2, #:upper16:.LANCHOR1
 313 0094 1360     		str	r3, [r2, #0]
 314 0096 C8E7     		b	.L29
 315              	.L32:
 316              		.align	2
 317              	.L31:
 318 0098 00000000 		.word	rlist
 319 009c 00000000 		.word	.LANCHOR3
 320 00a0 04000000 		.word	.LC1
 321 00a4 00000000 		.word	.LANCHOR2
 322 00a8 00000000 		.word	.LANCHOR0
 323              		.cfi_endproc
 324              	.LFE62:
 325              		.size	WorkerThread, .-WorkerThread
 326 00ac AFF30080 		.section	.text.printn,"ax",%progbits
 327              		.align	2
 328              		.p2align 4,,15
 329              		.thumb
 330              		.thumb_func
 331              		.type	printn, %function
 332              	printn:
 333              	.LFB67:
 334              		.loc 1 185 0
 335              		.cfi_startproc
 336              		@ args = 0, pretend = 0, frame = 16
 337              		@ frame_needed = 0, uses_anonymous_args = 0
 338              	.LVL25:
 339 0000 70B5     		push	{r4, r5, r6, lr}
ARM GAS  C:\DOCUME~1\Giovanni\IMPOST~1\Temp\ccZ4NPZV.s 			page 7


 340              	.LCFI5:
 341              		.cfi_def_cfa_offset 16
 342              		.cfi_offset 14, -4
 343              		.cfi_offset 6, -8
 344              		.cfi_offset 5, -12
 345              		.cfi_offset 4, -16
 346 0002 84B0     		sub	sp, sp, #16
 347              	.LCFI6:
 348              		.cfi_def_cfa_offset 32
 349              		.loc 1 188 0
 350 0004 0028     		cmp	r0, #0
 351 0006 24D0     		beq	.L39
 352              		.loc 1 193 0
 353 0008 4CF6CD42 		movw	r2, #52429
 354              	.LBB40:
 355              	.LBB41:
 356              		.loc 1 191 0
 357 000c 6D46     		mov	r5, sp
 358              	.LBE41:
 359              	.LBE40:
 360              		.loc 1 188 0
 361 000e 6C46     		mov	r4, sp
 362              		.loc 1 193 0
 363 0010 CCF6CC42 		movt	r2, 52428
 364              	.LVL26:
 365              	.L36:
 366 0014 A2FB0013 		umull	r1, r3, r2, r0
 367 0018 DB08     		lsrs	r3, r3, #3
 368 001a 03EB8301 		add	r1, r3, r3, lsl #2
 369 001e A0EB4101 		sub	r1, r0, r1, lsl #1
 370 0022 3031     		adds	r1, r1, #48
 371 0024 C9B2     		uxtb	r1, r1
 372              		.loc 1 192 0
 373 0026 1846     		mov	r0, r3
 374              		.loc 1 193 0
 375 0028 04F8011B 		strb	r1, [r4], #1
 376              	.LVL27:
 377              		.loc 1 192 0
 378 002c 002B     		cmp	r3, #0
 379 002e F1D1     		bne	.L36
 380              		.loc 1 194 0
 381 0030 AC42     		cmp	r4, r5
 382 0032 0CD9     		bls	.L33
 383 0034 0B4E     		ldr	r6, .L41
 384              		.loc 1 185 0
 385 0036 013C     		subs	r4, r4, #1
 386              	.LVL28:
 387 0038 01E0     		b	.L37
 388              	.LVL29:
 389              	.L40:
 390              		.loc 1 194 0
 391 003a 14F8011D 		ldrb	r1, [r4, #-1]!	@ zero_extendqisi2
 392              	.L37:
 393              		.loc 1 195 0
 394 003e 3368     		ldr	r3, [r6, #0]
 395 0040 0848     		ldr	r0, .L41
 396 0042 1B69     		ldr	r3, [r3, #16]
ARM GAS  C:\DOCUME~1\Giovanni\IMPOST~1\Temp\ccZ4NPZV.s 			page 8


 397 0044 4FF0FF32 		mov	r2, #-1
 398 0048 9847     		blx	r3
 399              		.loc 1 194 0
 400 004a AC42     		cmp	r4, r5
 401 004c F5D1     		bne	.L40
 402              	.L33:
 403              		.loc 1 197 0
 404 004e 04B0     		add	sp, sp, #16
 405 0050 70BD     		pop	{r4, r5, r6, pc}
 406              	.LVL30:
 407              	.L39:
 408              	.LBB43:
 409              	.LBB42:
 410              		.loc 1 189 0
 411 0052 0448     		ldr	r0, .L41
 412              	.LVL31:
 413 0054 3021     		movs	r1, #48
 414 0056 0368     		ldr	r3, [r0, #0]
 415 0058 4FF0FF32 		mov	r2, #-1
 416 005c 1B69     		ldr	r3, [r3, #16]
 417 005e 9847     		blx	r3
 418 0060 F5E7     		b	.L33
 419              	.L42:
 420 0062 00BF     		.align	2
 421              	.L41:
 422 0064 00000000 		.word	SD1
 423              	.LBE42:
 424              	.LBE43:
 425              		.cfi_endproc
 426              	.LFE67:
 427              		.size	printn, .-printn
 428 0068 AFF30080 		.section	.text.startup.main,"ax",%progbits
 428      AFF30080 
 429              		.align	2
 430              		.p2align 4,,15
 431              		.global	main
 432              		.thumb
 433              		.thumb_func
 434              		.type	main, %function
 435              	main:
 436              	.LFB68:
 437              		.loc 1 202 0
 438              		.cfi_startproc
 439              		@ args = 0, pretend = 0, frame = 8
 440              		@ frame_needed = 0, uses_anonymous_args = 0
 441 0000 2DE9F047 		push	{r4, r5, r6, r7, r8, r9, sl, lr}
 442              	.LCFI7:
 443              		.cfi_def_cfa_offset 32
 444              		.cfi_offset 14, -4
 445              		.cfi_offset 10, -8
 446              		.cfi_offset 9, -12
 447              		.cfi_offset 8, -16
 448              		.cfi_offset 7, -20
 449              		.cfi_offset 6, -24
 450              		.cfi_offset 5, -28
 451              		.cfi_offset 4, -32
 452 0004 84B0     		sub	sp, sp, #16
ARM GAS  C:\DOCUME~1\Giovanni\IMPOST~1\Temp\ccZ4NPZV.s 			page 9


 453              	.LCFI8:
 454              		.cfi_def_cfa_offset 48
 455              		.loc 1 213 0
 456 0006 FFF7FEFF 		bl	halInit
 457              		.loc 1 214 0
 458 000a FFF7FEFF 		bl	chSysInit
 459              		.loc 1 219 0
 460 000e 9048     		ldr	r0, .L84
 461 0010 0021     		movs	r1, #0
 462 0012 FFF7FEFF 		bl	sdStart
 463              		.loc 1 220 0
 464 0016 0020     		movs	r0, #0
 465 0018 C4F20200 		movt	r0, 16386
 466 001c 4FF40071 		mov	r1, #512
 467 0020 40F28232 		movw	r2, #898
 468 0024 FFF7FEFF 		bl	_pal_lld_setgroupmode
 469              		.loc 1 221 0
 470 0028 0020     		movs	r0, #0
 471 002a 40F28232 		movw	r2, #898
 472 002e C4F20200 		movt	r0, 16386
 473 0032 4FF48061 		mov	r1, #1024
 474 0036 FFF7FEFF 		bl	_pal_lld_setgroupmode
 475              		.loc 1 222 0
 476 003a 8648     		ldr	r0, .L84+4
 477 003c 8649     		ldr	r1, .L84+8
 478 003e FFF7FEFF 		bl	gptStart
 479              		.loc 1 223 0
 480 0042 8648     		ldr	r0, .L84+12
 481 0044 8649     		ldr	r1, .L84+16
 482 0046 FFF7FEFF 		bl	gptStart
 483              	.LVL32:
 484              		.loc 1 229 0
 485 004a 864E     		ldr	r6, .L84+20
 486              		.loc 1 230 0
 487 004c 864D     		ldr	r5, .L84+24
 488 004e 874F     		ldr	r7, .L84+28
 489              		.loc 1 228 0
 490 0050 0024     		movs	r4, #0
 491              	.LVL33:
 492              	.L44:
 493              		.loc 1 229 0 discriminator 2
 494 0052 04EB8400 		add	r0, r4, r4, lsl #2
 495 0056 3146     		mov	r1, r6
 496 0058 0422     		movs	r2, #4
 497 005a 07EBC000 		add	r0, r7, r0, lsl #3
 498 005e FFF7FEFF 		bl	chMBInit
 499              		.loc 1 230 0 discriminator 2
 500 0062 0094     		str	r4, [sp, #0]
 501 0064 2846     		mov	r0, r5
 502 0066 2C22     		movs	r2, #44
 503 0068 4FF49071 		mov	r1, #288
 504 006c 804B     		ldr	r3, .L84+32
 505              		.loc 1 228 0 discriminator 2
 506 006e 0134     		adds	r4, r4, #1
 507              		.loc 1 230 0 discriminator 2
 508 0070 FFF7FEFF 		bl	chThdCreateStatic
 509              	.LVL34:
ARM GAS  C:\DOCUME~1\Giovanni\IMPOST~1\Temp\ccZ4NPZV.s 			page 10


 510              		.loc 1 228 0 discriminator 2
 511 0074 1036     		adds	r6, r6, #16
 512 0076 042C     		cmp	r4, #4
 513 0078 05F59075 		add	r5, r5, #288
 514 007c E9D1     		bne	.L44
 515              		.loc 1 237 0
 516 007e 7D48     		ldr	r0, .L84+36
 517 0080 FFF7FEFF 		bl	println
 518              		.loc 1 238 0
 519 0084 7C48     		ldr	r0, .L84+40
 520 0086 FFF7FEFF 		bl	println
 521              		.loc 1 239 0
 522 008a 7C4C     		ldr	r4, .L84+44
 523              	.LVL35:
 524 008c 7C48     		ldr	r0, .L84+48
 525 008e 704D     		ldr	r5, .L84
 526 0090 FFF7FEFF 		bl	println
 527              	.LVL36:
 528              		.loc 1 172 0
 529 0094 2A21     		movs	r1, #42
 530              	.LVL37:
 531              	.L45:
 532              	.LBB44:
 533              	.LBB45:
 534              		.loc 1 173 0
 535 0096 2B68     		ldr	r3, [r5, #0]
 536 0098 6D48     		ldr	r0, .L84
 537 009a 1B69     		ldr	r3, [r3, #16]
 538 009c 4FF0FF32 		mov	r2, #-1
 539 00a0 9847     		blx	r3
 540              		.loc 1 172 0
 541 00a2 14F8011F 		ldrb	r1, [r4, #1]!	@ zero_extendqisi2
 542 00a6 0029     		cmp	r1, #0
 543 00a8 F5D1     		bne	.L45
 544              	.LBE45:
 545              	.LBE44:
 546              		.loc 1 241 0
 547 00aa 7648     		ldr	r0, .L84+52
 548 00ac 764C     		ldr	r4, .L84+56
 549 00ae FFF7FEFF 		bl	println
 550              	.LVL38:
 551              		.loc 1 172 0
 552 00b2 2A21     		movs	r1, #42
 553              	.LVL39:
 554              	.L46:
 555              	.LBB46:
 556              	.LBB47:
 557              		.loc 1 173 0
 558 00b4 2B68     		ldr	r3, [r5, #0]
 559 00b6 6648     		ldr	r0, .L84
 560 00b8 1B69     		ldr	r3, [r3, #16]
 561 00ba 4FF0FF32 		mov	r2, #-1
 562 00be 9847     		blx	r3
 563              		.loc 1 172 0
 564 00c0 14F8011F 		ldrb	r1, [r4, #1]!	@ zero_extendqisi2
 565 00c4 0029     		cmp	r1, #0
 566 00c6 F5D1     		bne	.L46
ARM GAS  C:\DOCUME~1\Giovanni\IMPOST~1\Temp\ccZ4NPZV.s 			page 11


 567              	.LBE47:
 568              	.LBE46:
 569              		.loc 1 244 0
 570 00c8 7048     		ldr	r0, .L84+60
 571 00ca 714C     		ldr	r4, .L84+64
 572 00cc FFF7FEFF 		bl	println
 573              	.LVL40:
 574              		.loc 1 172 0
 575 00d0 2A21     		movs	r1, #42
 576              	.LVL41:
 577              	.L47:
 578              	.LBB48:
 579              	.LBB49:
 580              		.loc 1 173 0
 581 00d2 2B68     		ldr	r3, [r5, #0]
 582 00d4 5E48     		ldr	r0, .L84
 583 00d6 1B69     		ldr	r3, [r3, #16]
 584 00d8 4FF0FF32 		mov	r2, #-1
 585 00dc 9847     		blx	r3
 586              		.loc 1 172 0
 587 00de 14F8011F 		ldrb	r1, [r4, #1]!	@ zero_extendqisi2
 588 00e2 0029     		cmp	r1, #0
 589 00e4 F5D1     		bne	.L47
 590              	.LBE49:
 591              	.LBE48:
 592              		.loc 1 247 0
 593 00e6 6B48     		ldr	r0, .L84+68
 594 00e8 6B4C     		ldr	r4, .L84+72
 595 00ea FFF7FEFF 		bl	println
 596              	.LVL42:
 597              		.loc 1 172 0
 598 00ee 2A21     		movs	r1, #42
 599              	.LVL43:
 600              	.L48:
 601              	.LBB50:
 602              	.LBB51:
 603              		.loc 1 173 0
 604 00f0 2B68     		ldr	r3, [r5, #0]
 605 00f2 5748     		ldr	r0, .L84
 606 00f4 1B69     		ldr	r3, [r3, #16]
 607 00f6 4FF0FF32 		mov	r2, #-1
 608 00fa 9847     		blx	r3
 609              		.loc 1 172 0
 610 00fc 14F8011F 		ldrb	r1, [r4, #1]!	@ zero_extendqisi2
 611 0100 0029     		cmp	r1, #0
 612 0102 F5D1     		bne	.L48
 613              	.LBE51:
 614              	.LBE50:
 615              		.loc 1 250 0
 616 0104 6548     		ldr	r0, .L84+76
 617 0106 664C     		ldr	r4, .L84+80
 618 0108 FFF7FEFF 		bl	println
 619              	.LVL44:
 620              		.loc 1 172 0
 621 010c 2A21     		movs	r1, #42
 622              	.LVL45:
 623              	.L49:
ARM GAS  C:\DOCUME~1\Giovanni\IMPOST~1\Temp\ccZ4NPZV.s 			page 12


 624              	.LBB52:
 625              	.LBB53:
 626              		.loc 1 173 0
 627 010e 2B68     		ldr	r3, [r5, #0]
 628 0110 4F48     		ldr	r0, .L84
 629 0112 1B69     		ldr	r3, [r3, #16]
 630 0114 4FF0FF32 		mov	r2, #-1
 631 0118 9847     		blx	r3
 632              		.loc 1 172 0
 633 011a 14F8011F 		ldrb	r1, [r4, #1]!	@ zero_extendqisi2
 634 011e 0029     		cmp	r1, #0
 635 0120 F5D1     		bne	.L49
 636              	.LBE53:
 637              	.LBE52:
 638              		.loc 1 254 0
 639 0122 6048     		ldr	r0, .L84+84
 640 0124 604C     		ldr	r4, .L84+88
 641 0126 FFF7FEFF 		bl	println
 642              	.LVL46:
 643              		.loc 1 172 0
 644 012a 2A21     		movs	r1, #42
 645              	.LVL47:
 646              	.L50:
 647              	.LBB54:
 648              	.LBB55:
 649              		.loc 1 173 0
 650 012c 2B68     		ldr	r3, [r5, #0]
 651 012e 4848     		ldr	r0, .L84
 652 0130 1B69     		ldr	r3, [r3, #16]
 653 0132 4FF0FF32 		mov	r2, #-1
 654 0136 9847     		blx	r3
 655              		.loc 1 172 0
 656 0138 14F8011F 		ldrb	r1, [r4, #1]!	@ zero_extendqisi2
 657 013c 0029     		cmp	r1, #0
 658 013e F5D1     		bne	.L50
 659              	.LBE55:
 660              	.LBE54:
 661              		.loc 1 258 0
 662 0140 5A48     		ldr	r0, .L84+92
 663 0142 FFF7FEFF 		bl	println
 664              		.loc 1 260 0
 665 0146 5A4C     		ldr	r4, .L84+96
 666 0148 4D48     		ldr	r0, .L84+48
 667 014a FFF7FEFF 		bl	println
 668              	.LVL48:
 669              		.loc 1 172 0
 670 014e 2A21     		movs	r1, #42
 671              	.LVL49:
 672              	.L51:
 673              	.LBB56:
 674              	.LBB57:
 675              		.loc 1 173 0
 676 0150 2B68     		ldr	r3, [r5, #0]
 677 0152 3F48     		ldr	r0, .L84
 678 0154 1B69     		ldr	r3, [r3, #16]
 679 0156 4FF0FF32 		mov	r2, #-1
 680 015a 9847     		blx	r3
ARM GAS  C:\DOCUME~1\Giovanni\IMPOST~1\Temp\ccZ4NPZV.s 			page 13


 681              		.loc 1 172 0
 682 015c 14F8011F 		ldrb	r1, [r4, #1]!	@ zero_extendqisi2
 683 0160 0029     		cmp	r1, #0
 684 0162 F5D1     		bne	.L51
 685              	.LBE57:
 686              	.LBE56:
 687              		.loc 1 262 0
 688 0164 4FF49040 		mov	r0, #18432
 689 0168 C0F2E810 		movt	r0, 488
 690 016c FFF7FEFF 		bl	printn
 691              		.loc 1 263 0
 692 0170 504C     		ldr	r4, .L84+100
 693 0172 4048     		ldr	r0, .L84+36
 694 0174 FFF7FEFF 		bl	println
 695              	.LVL50:
 696              		.loc 1 172 0
 697 0178 2A21     		movs	r1, #42
 698              	.LVL51:
 699              	.L52:
 700              	.LBB58:
 701              	.LBB59:
 702              		.loc 1 173 0
 703 017a 2B68     		ldr	r3, [r5, #0]
 704 017c 3448     		ldr	r0, .L84
 705 017e 1B69     		ldr	r3, [r3, #16]
 706 0180 4FF0FF32 		mov	r2, #-1
 707 0184 9847     		blx	r3
 708              		.loc 1 172 0
 709 0186 14F8011F 		ldrb	r1, [r4, #1]!	@ zero_extendqisi2
 710 018a 0029     		cmp	r1, #0
 711 018c F5D1     		bne	.L52
 712              	.LBE59:
 713              	.LBE58:
 714              		.loc 1 265 0
 715 018e 6420     		movs	r0, #100
 716 0190 FFF7FEFF 		bl	printn
 717              		.loc 1 266 0
 718 0194 484C     		ldr	r4, .L84+104
 719 0196 3748     		ldr	r0, .L84+36
 720 0198 FFF7FEFF 		bl	println
 721              	.LVL52:
 722              		.loc 1 172 0
 723 019c 2A21     		movs	r1, #42
 724              	.LVL53:
 725              	.L53:
 726              	.LBB60:
 727              	.LBB61:
 728              		.loc 1 173 0
 729 019e 2B68     		ldr	r3, [r5, #0]
 730 01a0 2B48     		ldr	r0, .L84
 731 01a2 1B69     		ldr	r3, [r3, #16]
 732 01a4 4FF0FF32 		mov	r2, #-1
 733 01a8 9847     		blx	r3
 734              		.loc 1 172 0
 735 01aa 14F8011F 		ldrb	r1, [r4, #1]!	@ zero_extendqisi2
 736 01ae 0029     		cmp	r1, #0
 737 01b0 F5D1     		bne	.L53
ARM GAS  C:\DOCUME~1\Giovanni\IMPOST~1\Temp\ccZ4NPZV.s 			page 14


 738              	.LBE61:
 739              	.LBE60:
 740              		.loc 1 268 0
 741 01b2 0846     		mov	r0, r1
 742 01b4 FFF7FEFF 		bl	printn
 743              		.loc 1 269 0
 744 01b8 404C     		ldr	r4, .L84+108
 745 01ba 2E48     		ldr	r0, .L84+36
 746 01bc FFF7FEFF 		bl	println
 747              	.LVL54:
 748              		.loc 1 172 0
 749 01c0 2A21     		movs	r1, #42
 750              	.LVL55:
 751              	.L54:
 752              	.LBB62:
 753              	.LBB63:
 754              		.loc 1 173 0
 755 01c2 2B68     		ldr	r3, [r5, #0]
 756 01c4 2248     		ldr	r0, .L84
 757 01c6 1B69     		ldr	r3, [r3, #16]
 758 01c8 4FF0FF32 		mov	r2, #-1
 759 01cc 9847     		blx	r3
 760              		.loc 1 172 0
 761 01ce 14F8011F 		ldrb	r1, [r4, #1]!	@ zero_extendqisi2
 762 01d2 0029     		cmp	r1, #0
 763 01d4 F5D1     		bne	.L54
 764              	.LBE63:
 765              	.LBE62:
 766              		.loc 1 271 0
 767 01d6 0420     		movs	r0, #4
 768 01d8 FFF7FEFF 		bl	printn
 769              		.loc 1 272 0
 770 01dc 2548     		ldr	r0, .L84+36
 771 01de FFF7FEFF 		bl	println
 772              	.LVL56:
 773 01e2 374C     		ldr	r4, .L84+112
 774              		.loc 1 172 0
 775 01e4 2A26     		movs	r6, #42
 776              	.LVL57:
 777              	.L55:
 778              	.LBB64:
 779              	.LBB65:
 780              		.loc 1 173 0
 781 01e6 2B68     		ldr	r3, [r5, #0]
 782 01e8 3146     		mov	r1, r6
 783 01ea 1B69     		ldr	r3, [r3, #16]
 784 01ec 1848     		ldr	r0, .L84
 785 01ee 4FF0FF32 		mov	r2, #-1
 786 01f2 9847     		blx	r3
 787              		.loc 1 172 0
 788 01f4 14F8016F 		ldrb	r6, [r4, #1]!	@ zero_extendqisi2
 789 01f8 002E     		cmp	r6, #0
 790 01fa F4D1     		bne	.L55
 791              	.LBE65:
 792              	.LBE64:
 793              		.loc 1 274 0
 794 01fc 0420     		movs	r0, #4
ARM GAS  C:\DOCUME~1\Giovanni\IMPOST~1\Temp\ccZ4NPZV.s 			page 15


 795 01fe FFF7FEFF 		bl	printn
 796              		.loc 1 275 0
 797 0202 1C48     		ldr	r0, .L84+36
 798 0204 FFF7FEFF 		bl	println
 799              		.loc 1 277 0
 800 0208 1A48     		ldr	r0, .L84+36
 801 020a FFF7FEFF 		bl	println
 802              	.LVL58:
 803              		.loc 1 285 0
 804 020e 4CF6CD48 		movw	r8, #52429
 805 0212 2C4F     		ldr	r7, .L84+116
 806              		.loc 1 278 0
 807 0214 B246     		mov	sl, r6
 808              		.loc 1 279 0
 809 0216 4FF00109 		mov	r9, #1
 810              		.loc 1 285 0
 811 021a CCF6CC48 		movt	r8, 52428
 812              	.LVL59:
 813              	.L56:
 814              		.loc 1 279 0
 815 021e 2A4C     		ldr	r4, .L84+120
 816              		.loc 1 172 0
 817 0220 4921     		movs	r1, #73
 818              	.LVL60:
 819              	.L57:
 820              	.LBB66:
 821              	.LBB67:
 822              		.loc 1 173 0
 823 0222 2B68     		ldr	r3, [r5, #0]
 824 0224 0A48     		ldr	r0, .L84
 825 0226 1B69     		ldr	r3, [r3, #16]
 826 0228 4FF0FF32 		mov	r2, #-1
 827 022c 9847     		blx	r3
 828              		.loc 1 172 0
 829 022e 14F8011F 		ldrb	r1, [r4, #1]!	@ zero_extendqisi2
 830 0232 0029     		cmp	r1, #0
 831 0234 F5D1     		bne	.L57
 832              	.LBE67:
 833              	.LBE66:
 834              		.loc 1 281 0
 835 0236 4846     		mov	r0, r9
 836 0238 0391     		str	r1, [sp, #12]
 837 023a FFF7FEFF 		bl	printn
 838              		.loc 1 282 0
 839 023e 0D48     		ldr	r0, .L84+36
 840 0240 FFF7FEFF 		bl	println
 841              		.loc 1 284 0
 842 0244 0399     		ldr	r1, [sp, #12]
 843              		.loc 1 285 0
 844 0246 4FF4FA66 		mov	r6, #2000
 845              		.loc 1 284 0
 846 024a 0C46     		mov	r4, r1
 847              		.loc 1 283 0
 848 024c 3960     		str	r1, [r7, #0]
 849              	.LVL61:
 850 024e 48E0     		b	.L60
 851              	.L85:
ARM GAS  C:\DOCUME~1\Giovanni\IMPOST~1\Temp\ccZ4NPZV.s 			page 16


 852              		.align	2
 853              	.L84:
 854 0250 00000000 		.word	SD1
 855 0254 00000000 		.word	GPTD2
 856 0258 00000000 		.word	.LANCHOR4
 857 025c 00000000 		.word	GPTD3
 858 0260 00000000 		.word	.LANCHOR5
 859 0264 00000000 		.word	.LANCHOR6
 860 0268 00000000 		.word	.LANCHOR7
 861 026c 00000000 		.word	.LANCHOR0
 862 0270 00000000 		.word	WorkerThread
 863 0274 0C000000 		.word	.LC2
 864 0278 10000000 		.word	.LC3
 865 027c 40000000 		.word	.LC5
 866 0280 3C000000 		.word	.LC4
 867 0284 54000000 		.word	.LC6
 868 0288 64000000 		.word	.LC7
 869 028c 78000000 		.word	.LC8
 870 0290 80000000 		.word	.LC9
 871 0294 94000000 		.word	.LC10
 872 0298 9C000000 		.word	.LC11
 873 029c B0000000 		.word	.LC12
 874 02a0 BC000000 		.word	.LC13
 875 02a4 D0000000 		.word	.LC14
 876 02a8 F8000000 		.word	.LC15
 877 02ac 0C010000 		.word	.LC16
 878 02b0 20010000 		.word	.LC17
 879 02b4 34010000 		.word	.LC18
 880 02b8 48010000 		.word	.LC19
 881 02bc 5C010000 		.word	.LC20
 882 02c0 70010000 		.word	.LC21
 883 02c4 00000000 		.word	.LANCHOR1
 884 02c8 98010000 		.word	.LC24
 885              	.LVL62:
 886              	.L83:
 887              	.LBB68:
 888              	.LBB69:
 889              		.loc 1 173 0
 890 02cc 2B68     		ldr	r3, [r5, #0]
 891 02ce 2E21     		movs	r1, #46
 892 02d0 1B69     		ldr	r3, [r3, #16]
 893 02d2 9847     		blx	r3
 894              	.LVL63:
 895              	.LBE69:
 896              	.LBE68:
 897              		.loc 1 285 0
 898 02d4 A8FB0623 		umull	r2, r3, r8, r6
 899 02d8 A6EBD306 		sub	r6, r6, r3, lsr #3
 900 02dc B6B2     		uxth	r6, r6
 901              	.LVL64:
 902 02de 132E     		cmp	r6, #19
 903 02e0 27D9     		bls	.L82
 904              	.LVL65:
 905              	.L60:
 906              		.loc 1 286 0
 907 02e2 711E     		subs	r1, r6, #1
 908 02e4 89B2     		uxth	r1, r1
ARM GAS  C:\DOCUME~1\Giovanni\IMPOST~1\Temp\ccZ4NPZV.s 			page 17


 909 02e6 3748     		ldr	r0, .L86
 910 02e8 FFF7FEFF 		bl	gptStartContinuous
 911              		.loc 1 287 0
 912 02ec 711C     		adds	r1, r6, #1
 913 02ee 89B2     		uxth	r1, r1
 914 02f0 3548     		ldr	r0, .L86+4
 915 02f2 FFF7FEFF 		bl	gptStartContinuous
 916              		.loc 1 288 0
 917 02f6 4FF47A70 		mov	r0, #1000
 918 02fa FFF7FEFF 		bl	chThdSleep
 919              		.loc 1 289 0
 920 02fe 3148     		ldr	r0, .L86
 921 0300 FFF7FEFF 		bl	gptStopTimer
 922              		.loc 1 290 0
 923 0304 3048     		ldr	r0, .L86+4
 924 0306 FFF7FEFF 		bl	gptStopTimer
 925              		.loc 1 291 0
 926 030a 3B68     		ldr	r3, [r7, #0]
 927              	.LBB70:
 928              	.LBB71:
 929              		.loc 1 173 0
 930 030c 2F48     		ldr	r0, .L86+8
 931 030e 2321     		movs	r1, #35
 932 0310 4FF0FF32 		mov	r2, #-1
 933              	.LBE71:
 934              	.LBE70:
 935              		.loc 1 291 0
 936 0314 002B     		cmp	r3, #0
 937 0316 D9D0     		beq	.L83
 938              	.LVL66:
 939              	.LBB74:
 940              	.LBB72:
 941              		.loc 1 173 0
 942 0318 2B68     		ldr	r3, [r5, #0]
 943              	.LBE72:
 944              	.LBE74:
 945              		.loc 1 295 0
 946 031a 002C     		cmp	r4, #0
 947 031c 08BF     		it	eq
 948 031e 3446     		moveq	r4, r6
 949              	.LBB75:
 950              	.LBB73:
 951              		.loc 1 173 0
 952 0320 1B69     		ldr	r3, [r3, #16]
 953 0322 9847     		blx	r3
 954              	.LVL67:
 955              	.LBE73:
 956              	.LBE75:
 957              		.loc 1 285 0
 958 0324 A8FB0623 		umull	r2, r3, r8, r6
 959 0328 A6EBD306 		sub	r6, r6, r3, lsr #3
 960 032c B6B2     		uxth	r6, r6
 961              	.LVL68:
 962 032e 132E     		cmp	r6, #19
 963 0330 D7D8     		bhi	.L60
 964              	.LVL69:
 965              	.L82:
ARM GAS  C:\DOCUME~1\Giovanni\IMPOST~1\Temp\ccZ4NPZV.s 			page 18


 966              		.loc 1 301 0
 967 0332 1420     		movs	r0, #20
 968 0334 FFF7FEFF 		bl	chThdSleep
 969              		.loc 1 302 0
 970 0338 254E     		ldr	r6, .L86+12
 971 033a 2648     		ldr	r0, .L86+16
 972 033c FFF7FEFF 		bl	println
 973              	.LVL70:
 974              		.loc 1 172 0
 975 0340 5321     		movs	r1, #83
 976              	.LVL71:
 977              	.L61:
 978              	.LBB76:
 979              	.LBB77:
 980              		.loc 1 173 0
 981 0342 2B68     		ldr	r3, [r5, #0]
 982 0344 2148     		ldr	r0, .L86+8
 983 0346 1B69     		ldr	r3, [r3, #16]
 984 0348 4FF0FF32 		mov	r2, #-1
 985 034c 9847     		blx	r3
 986              		.loc 1 172 0
 987 034e 16F8011F 		ldrb	r1, [r6, #1]!	@ zero_extendqisi2
 988 0352 0029     		cmp	r1, #0
 989 0354 F5D1     		bne	.L61
 990              	.LBE77:
 991              	.LBE76:
 992              		.loc 1 304 0
 993 0356 2046     		mov	r0, r4
 994 0358 FFF7FEFF 		bl	printn
 995              		.loc 1 305 0
 996 035c 1E48     		ldr	r0, .L86+20
 997 035e FFF7FEFF 		bl	println
 998              		.loc 1 279 0
 999 0362 09F10109 		add	r9, r9, #1
 1000              		.loc 1 306 0
 1001 0366 1B48     		ldr	r0, .L86+16
 1002 0368 5445     		cmp	r4, sl
 1003 036a 28BF     		it	cs
 1004 036c A246     		movcs	sl, r4
 1005 036e FFF7FEFF 		bl	println
 1006              		.loc 1 279 0
 1007 0372 B9F1650F 		cmp	r9, #101
 1008              		.loc 1 306 0
 1009 0376 1FFA8AFA 		uxth	sl, sl
 1010              	.LVL72:
 1011              		.loc 1 279 0
 1012 037a 7FF450AF 		bne	.L56
 1013              		.loc 1 310 0
 1014 037e 1148     		ldr	r0, .L86
 1015 0380 FFF7FEFF 		bl	gptStopTimer
 1016              		.loc 1 311 0
 1017 0384 154C     		ldr	r4, .L86+24
 1018 0386 1048     		ldr	r0, .L86+4
 1019 0388 FFF7FEFF 		bl	gptStopTimer
 1020              	.LVL73:
 1021              		.loc 1 172 0
 1022 038c 5721     		movs	r1, #87
ARM GAS  C:\DOCUME~1\Giovanni\IMPOST~1\Temp\ccZ4NPZV.s 			page 19


 1023              	.LVL74:
 1024              	.L63:
 1025              	.LBB78:
 1026              	.LBB79:
 1027              		.loc 1 173 0
 1028 038e 2B68     		ldr	r3, [r5, #0]
 1029 0390 0E48     		ldr	r0, .L86+8
 1030 0392 1B69     		ldr	r3, [r3, #16]
 1031 0394 4FF0FF32 		mov	r2, #-1
 1032 0398 9847     		blx	r3
 1033              		.loc 1 172 0
 1034 039a 14F8011F 		ldrb	r1, [r4, #1]!	@ zero_extendqisi2
 1035 039e 0029     		cmp	r1, #0
 1036 03a0 F5D1     		bne	.L63
 1037              	.LBE79:
 1038              	.LBE78:
 1039              		.loc 1 314 0
 1040 03a2 5046     		mov	r0, sl
 1041 03a4 FFF7FEFF 		bl	printn
 1042              		.loc 1 315 0
 1043 03a8 0B48     		ldr	r0, .L86+20
 1044 03aa FFF7FEFF 		bl	println
 1045              		.loc 1 316 0
 1046 03ae 0948     		ldr	r0, .L86+16
 1047 03b0 FFF7FEFF 		bl	println
 1048              		.loc 1 317 0
 1049 03b4 0A48     		ldr	r0, .L86+28
 1050 03b6 FFF7FEFF 		bl	println
 1051              	.L64:
 1052              		.loc 1 323 0 discriminator 1
 1053 03ba 41F28830 		movw	r0, #5000
 1054 03be FFF7FEFF 		bl	chThdSleep
 1055 03c2 FAE7     		b	.L64
 1056              	.L87:
 1057              		.align	2
 1058              	.L86:
 1059 03c4 00000000 		.word	GPTD2
 1060 03c8 00000000 		.word	GPTD3
 1061 03cc 00000000 		.word	SD1
 1062 03d0 84010000 		.word	.LC22
 1063 03d4 0C000000 		.word	.LC2
 1064 03d8 94010000 		.word	.LC23
 1065 03dc A4010000 		.word	.LC25
 1066 03e0 B4010000 		.word	.LC26
 1067              		.cfi_endproc
 1068              	.LFE68:
 1069              		.size	main, .-main
 1070 03e4 AFF30080 		.section	.rodata.gpt2cfg,"a",%progbits
 1070      AFF30080 
 1070      AFF30080 
 1071              		.align	2
 1072              		.set	.LANCHOR4,. + 0
 1073              		.type	gpt2cfg, %object
 1074              		.size	gpt2cfg, 8
 1075              	gpt2cfg:
 1076 0000 40420F00 		.word	1000000
 1077 0004 00000000 		.word	gpt2cb
ARM GAS  C:\DOCUME~1\Giovanni\IMPOST~1\Temp\ccZ4NPZV.s 			page 20


 1078              		.section	.bss.waWorkerThread,"aw",%nobits
 1079              		.align	3
 1080              		.set	.LANCHOR7,. + 0
 1081              		.type	waWorkerThread, %object
 1082              		.size	waWorkerThread, 1152
 1083              	waWorkerThread:
 1084 0000 00000000 		.space	1152
 1084      00000000 
 1084      00000000 
 1084      00000000 
 1084      00000000 
 1085              		.section	.bss.saturated,"aw",%nobits
 1086              		.align	2
 1087              		.set	.LANCHOR1,. + 0
 1088              		.type	saturated, %object
 1089              		.size	saturated, 4
 1090              	saturated:
 1091 0000 00000000 		.space	4
 1092              		.section	.rodata.gpt3cfg,"a",%progbits
 1093              		.align	2
 1094              		.set	.LANCHOR5,. + 0
 1095              		.type	gpt3cfg, %object
 1096              		.size	gpt3cfg, 8
 1097              	gpt3cfg:
 1098 0000 40420F00 		.word	1000000
 1099 0004 00000000 		.word	gpt3cb
 1100              		.section	.rodata.str1.4,"aMS",%progbits,1
 1101              		.align	2
 1102              	.LC0:
 1103 0000 0D0A00   		.ascii	"\015\012\000"
 1104 0003 00       		.space	1
 1105              	.LC1:
 1106 0004 776F726B 		.ascii	"worker\000"
 1106      657200
 1107 000b 00       		.space	1
 1108              	.LC2:
 1109 000c 00       		.ascii	"\000"
 1110 000d 000000   		.space	3
 1111              	.LC3:
 1112 0010 2A2A2A20 		.ascii	"*** ChibiOS/RT IRQ-STORM long duration test\000"
 1112      43686962 
 1112      694F532F 
 1112      52542049 
 1112      52512D53 
 1113              	.LC4:
 1114 003c 2A2A2A00 		.ascii	"***\000"
 1115              	.LC5:
 1116 0040 2A2A2A20 		.ascii	"*** Kernel:       \000"
 1116      4B65726E 
 1116      656C3A20 
 1116      20202020 
 1116      202000
 1117 0053 00       		.space	1
 1118              	.LC6:
 1119 0054 322E332E 		.ascii	"2.3.3unstable\000"
 1119      33756E73 
 1119      7461626C 
ARM GAS  C:\DOCUME~1\Giovanni\IMPOST~1\Temp\ccZ4NPZV.s 			page 21


 1119      6500
 1120 0062 0000     		.space	2
 1121              	.LC7:
 1122 0064 2A2A2A20 		.ascii	"*** GCC Version:  \000"
 1122      47434320 
 1122      56657273 
 1122      696F6E3A 
 1122      202000
 1123 0077 00       		.space	1
 1124              	.LC8:
 1125 0078 342E362E 		.ascii	"4.6.0\000"
 1125      3000
 1126 007e 0000     		.space	2
 1127              	.LC9:
 1128 0080 2A2A2A20 		.ascii	"*** Architecture: \000"
 1128      41726368 
 1128      69746563 
 1128      74757265 
 1128      3A2000
 1129 0093 00       		.space	1
 1130              	.LC10:
 1131 0094 41524D76 		.ascii	"ARMv7-M\000"
 1131      372D4D00 
 1132              	.LC11:
 1133 009c 2A2A2A20 		.ascii	"*** Core Variant: \000"
 1133      436F7265 
 1133      20566172 
 1133      69616E74 
 1133      3A2000
 1134 00af 00       		.space	1
 1135              	.LC12:
 1136 00b0 436F7274 		.ascii	"Cortex-M3\000"
 1136      65782D4D 
 1136      3300
 1137 00ba 0000     		.space	2
 1138              	.LC13:
 1139 00bc 2A2A2A20 		.ascii	"*** Platform:     \000"
 1139      506C6174 
 1139      666F726D 
 1139      3A202020 
 1139      202000
 1140 00cf 00       		.space	1
 1141              	.LC14:
 1142 00d0 53544D33 		.ascii	"STM32L Ultra Low Power Medium Density\000"
 1142      324C2055 
 1142      6C747261 
 1142      204C6F77 
 1142      20506F77 
 1143 00f6 0000     		.space	2
 1144              	.LC15:
 1145 00f8 2A2A2A20 		.ascii	"*** Test Board:   \000"
 1145      54657374 
 1145      20426F61 
 1145      72643A20 
 1145      202000
 1146 010b 00       		.space	1
 1147              	.LC16:
ARM GAS  C:\DOCUME~1\Giovanni\IMPOST~1\Temp\ccZ4NPZV.s 			page 22


 1148 010c 53542053 		.ascii	"ST STM32L-Discovery\000"
 1148      544D3332 
 1148      4C2D4469 
 1148      73636F76 
 1148      65727900 
 1149              	.LC17:
 1150 0120 2A2A2A20 		.ascii	"*** System Clock: \000"
 1150      53797374 
 1150      656D2043 
 1150      6C6F636B 
 1150      3A2000
 1151 0133 00       		.space	1
 1152              	.LC18:
 1153 0134 2A2A2A20 		.ascii	"*** Iterations:   \000"
 1153      49746572 
 1153      6174696F 
 1153      6E733A20 
 1153      202000
 1154 0147 00       		.space	1
 1155              	.LC19:
 1156 0148 2A2A2A20 		.ascii	"*** Randomize:    \000"
 1156      52616E64 
 1156      6F6D697A 
 1156      653A2020 
 1156      202000
 1157 015b 00       		.space	1
 1158              	.LC20:
 1159 015c 2A2A2A20 		.ascii	"*** Threads:      \000"
 1159      54687265 
 1159      6164733A 
 1159      20202020 
 1159      202000
 1160 016f 00       		.space	1
 1161              	.LC21:
 1162 0170 2A2A2A20 		.ascii	"*** Mailbox size: \000"
 1162      4D61696C 
 1162      626F7820 
 1162      73697A65 
 1162      3A2000
 1163 0183 00       		.space	1
 1164              	.LC22:
 1165 0184 53617475 		.ascii	"Saturated at \000"
 1165      72617465 
 1165      64206174 
 1165      2000
 1166 0192 0000     		.space	2
 1167              	.LC23:
 1168 0194 20755300 		.ascii	" uS\000"
 1169              	.LC24:
 1170 0198 49746572 		.ascii	"Iteration \000"
 1170      6174696F 
 1170      6E2000
 1171 01a3 00       		.space	1
 1172              	.LC25:
 1173 01a4 576F7273 		.ascii	"Worst case at \000"
 1173      74206361 
 1173      73652061 
ARM GAS  C:\DOCUME~1\Giovanni\IMPOST~1\Temp\ccZ4NPZV.s 			page 23


 1173      742000
 1174 01b3 00       		.space	1
 1175              	.LC26:
 1176 01b4 54657374 		.ascii	"Test Complete\000"
 1176      20436F6D 
 1176      706C6574 
 1176      6500
 1177 01c2 0000     		.section	.bss.mb,"aw",%nobits
 1178              		.align	2
 1179              		.set	.LANCHOR0,. + 0
 1180              		.type	mb, %object
 1181              		.size	mb, 160
 1182              	mb:
 1183 0000 00000000 		.space	160
 1183      00000000 
 1183      00000000 
 1183      00000000 
 1183      00000000 
 1184              		.section	.bss.b,"aw",%nobits
 1185              		.align	2
 1186              		.set	.LANCHOR6,. + 0
 1187              		.type	b, %object
 1188              		.size	b, 64
 1189              	b:
 1190 0000 00000000 		.space	64
 1190      00000000 
 1190      00000000 
 1190      00000000 
 1190      00000000 
 1191              		.section	.bss.x.3441,"aw",%nobits
 1192              		.align	2
 1193              		.set	.LANCHOR2,. + 0
 1194              		.type	x.3441, %object
 1195              		.size	x.3441, 4
 1196              	x.3441:
 1197 0000 00000000 		.space	4
 1198              		.section	.bss.cnt.3442,"aw",%nobits
 1199              		.align	2
 1200              		.set	.LANCHOR3,. + 0
 1201              		.type	cnt.3442, %object
 1202              		.size	cnt.3442, 4
 1203              	cnt.3442:
 1204 0000 00000000 		.space	4
 1205              		.text
 1206              	.Letext0:
 1207              		.file 2 "c:\\programmi\\yagarto\\bin\\../lib/gcc/arm-none-eabi/4.6.0/include/stddef.h"
 1208              		.file 3 "c:/programmi/yagarto/lib/gcc/../../arm-none-eabi/sys-include/stdint.h"
 1209              		.file 4 "../../../os/ports/GCC/ARMCMx/chtypes.h"
 1210              		.file 5 "../../../os/kernel/include/chlists.h"
 1211              		.file 6 "../../../os/kernel/include/chthreads.h"
 1212              		.file 7 "../../../os/ports/GCC/ARMCMx/chcore_v7m.h"
 1213              		.file 8 "../../../os/ports/GCC/ARMCMx/chcore.h"
 1214              		.file 9 "../../../os/kernel/include/chschd.h"
 1215              		.file 10 "../../../os/kernel/include/chsem.h"
 1216              		.file 11 "../../../os/kernel/include/chmtx.h"
 1217              		.file 12 "../../../os/kernel/include/chevents.h"
 1218              		.file 13 "../../../os/kernel/include/chmboxes.h"
ARM GAS  C:\DOCUME~1\Giovanni\IMPOST~1\Temp\ccZ4NPZV.s 			page 24


 1219              		.file 14 "../../../os/kernel/include/chqueues.h"
 1220              		.file 15 "../../../os/kernel/include/chioch.h"
 1221              		.file 16 "../../../os/hal/platforms/STM32L1xx/stm32l1xx.h"
 1222              		.file 17 "../../../os/hal/platforms/STM32/GPIOv2/pal_lld.h"
 1223              		.file 18 "../../../os/hal/include/gpt.h"
 1224              		.file 19 "../../../os/hal/platforms/STM32/gpt_lld.h"
 1225              		.file 20 "../../../os/hal/include/serial.h"
 1226              		.file 21 "../../../os/ports/common/ARMCMx/CMSIS/include/core_cm3.h"
 1227              		.file 22 "../../../os/hal/platforms/STM32/serial_lld.h"